; Function Attrs: mustprogress nofree nounwind willreturn memory(write, argmem: readwrite) uwtable
define { <2 x float>, <2 x float> } @_ZNK2cv11RotatedRect14boundingRect2fEv(ptr noundef nonnull readonly align 4 captures(none) dereferenceable(20) %0) local_unnamed_addr #10 align 2 {
  %2 = getelementptr inbounds nuw i8, ptr %0, i64 16
  %3 = load float, ptr %2, align 4, !tbaa !56
  %4 = fpext float %3 to double
  %5 = fmul double %4, 0x400921FB54442D18
  %6 = fdiv double %5, 1.800000e+02
  %7 = tail call double @cos(double noundef %6) #20, !tbaa !31
  %8 = fptrunc double %7 to float
  %9 = fmul float %8, 5.000000e-01
  %10 = tail call double @sin(double noundef %6) #20, !tbaa !31
  %11 = fptrunc double %10 to float
  %12 = fmul float %11, 5.000000e-01
  %13 = load float, ptr %0, align 4, !tbaa !59
  %14 = getelementptr inbounds nuw i8, ptr %0, i64 8
  %15 = getelementptr inbounds nuw i8, ptr %0, i64 12
  %16 = load float, ptr %15, align 4, !tbaa !60
  %17 = fneg float %12
  %18 = tail call float @llvm.fmuladd.f32(float %17, float %16, float %13)
  %19 = load float, ptr %14, align 4, !tbaa !61
  %20 = fneg float %9
  %21 = tail call float @llvm.fmuladd.f32(float %20, float %19, float %18)
  %22 = getelementptr inbounds nuw i8, ptr %0, i64 4
  %23 = load float, ptr %22, align 4, !tbaa !62
  %24 = tail call float @llvm.fmuladd.f32(float %9, float %16, float %23)
  %25 = tail call float @llvm.fmuladd.f32(float %17, float %19, float %24)
  %26 = tail call float @llvm.fmuladd.f32(float %12, float %16, float %13)
  %27 = tail call float @llvm.fmuladd.f32(float %20, float %19, float %26)
  %28 = tail call float @llvm.fmuladd.f32(float %20, float %16, float %23)
  %29 = tail call float @llvm.fmuladd.f32(float %17, float %19, float %28)
  %30 = fneg float %21
  %31 = tail call float @llvm.fmuladd.f32(float %13, float 2.000000e+00, float %30)
  %32 = fneg float %25
  %33 = tail call float @llvm.fmuladd.f32(float %23, float 2.000000e+00, float %32)
  %34 = fneg float %27
  %35 = tail call float @llvm.fmuladd.f32(float %13, float 2.000000e+00, float %34)
  %36 = fneg float %29
  %37 = tail call float @llvm.fmuladd.f32(float %23, float 2.000000e+00, float %36)
  %38 = fcmp olt float %27, %21
  %39 = select i1 %38, float %27, float %21
  %40 = fcmp olt float %31, %39
  %41 = select i1 %40, float %31, float %39
  %42 = fcmp olt float %35, %41
  %43 = select i1 %42, float %35, float %41
  %44 = fcmp olt float %29, %25
  %45 = select i1 %44, float %29, float %25
  %46 = fcmp olt float %33, %45
  %47 = select i1 %46, float %33, float %45
  %48 = fcmp olt float %37, %47
  %49 = select i1 %48, float %37, float %47
  %50 = fcmp olt float %21, %27
  %51 = select i1 %50, float %27, float %21
  %52 = fcmp olt float %51, %31
  %53 = select i1 %52, float %31, float %51
  %54 = fcmp olt float %53, %35
  %55 = select i1 %54, float %35, float %53
  %56 = fcmp olt float %25, %29
  %57 = select i1 %56, float %29, float %25
  %58 = fcmp olt float %57, %33
  %59 = select i1 %58, float %33, float %57
  %60 = fcmp olt float %59, %37
  %61 = select i1 %60, float %37, float %59
  %62 = fcmp olt float %55, %43
  %63 = select i1 %62, float %55, float %43
  %.sroa.019.0.vec.insert = insertelement <2 x float> poison, float %63, i64 0
  %64 = fcmp olt float %61, %49
  %65 = select i1 %64, float %61, float %49
  %.sroa.019.4.vec.insert = insertelement <2 x float> %.sroa.019.0.vec.insert, float %65, i64 1
  %66 = fcmp olt float %43, %55
  %67 = select i1 %66, float %55, float %43
  %68 = fsub float %67, %63
  %.sroa.3.8.vec.insert = insertelement <2 x float> poison, float %68, i64 0
  %69 = fcmp olt float %49, %61
  %70 = select i1 %69, float %61, float %49
  %71 = fsub float %70, %65
  %.sroa.3.12.vec.insert = insertelement <2 x float> %.sroa.3.8.vec.insert, float %71, i64 1
  %.fca.0.insert = insertvalue { <2 x float>, <2 x float> } poison, <2 x float> %.sroa.019.4.vec.insert, 0
  %.fca.1.insert = insertvalue { <2 x float>, <2 x float> } %.fca.0.insert, <2 x float> %.sroa.3.12.vec.insert, 1
  ret { <2 x float>, <2 x float> } %.fca.1.insert
}